target datalayout = "e-m:e-p270:32:32-p271:32:32-p272:64:64-i64:64-i128:128-f80:128-n8:16:32:64-S128"
target triple = "x86_64-unknown-linux-gnu"

%"class.std::vector.3" = type { %"struct.std::_Vector_base.4" }
%"struct.std::_Vector_base.4" = type { %"struct.std::_Vector_base<date::leap_second, std::allocator<date::leap_second>>::_Vector_impl" }
%"struct.std::_Vector_base<date::leap_second, std::allocator<date::leap_second>>::_Vector_impl" = type { %"struct.std::_Vector_base<date::leap_second, std::allocator<date::leap_second>>::_Vector_impl_data" }
%"struct.std::_Vector_base<date::leap_second, std::allocator<date::leap_second>>::_Vector_impl_data" = type { ptr, ptr, ptr }

; Function Attrs: mustprogress nounwind uwtable
define internal noundef i32 @_ZN4dateL13reverse_bytesEj(i32 noundef %i) #4 {
entry:
  %i.addr = alloca i32, align 4
  store i32 %i, ptr %i.addr, align 4
  %0 = load i32, ptr %i.addr, align 4
  %and = and i32 %0, -16777216
  %shr = lshr i32 %and, 24
  %1 = load i32, ptr %i.addr, align 4
  %and1 = and i32 %1, 16711680
  %shr2 = lshr i32 %and1, 8
  %or = or i32 %shr, %shr2
  %2 = load i32, ptr %i.addr, align 4
  %and3 = and i32 %2, 65280
  %shl = shl i32 %and3, 8
  %or4 = or i32 %or, %shl
  %3 = load i32, ptr %i.addr, align 4
  %and5 = and i32 %3, 255
  %shl6 = shl i32 %and5, 24
  %or7 = or i32 %or4, %shl6
  ret i32 %or7
}

; Function Attrs: mustprogress uwtable
define internal void @_ZN4dateL19maybe_reverse_bytesERiSt17integral_constantIbLb1EE(ptr noundef nonnull align 4 dereferenceable(4) %t) #7 {
entry:
  %t.addr = alloca ptr, align 8
  store ptr %t, ptr %t.addr, align 8
  %0 = load ptr, ptr %t.addr, align 8
  %1 = load i32, ptr %0, align 4
  %call = call noundef i32 @_ZN4dateL13reverse_bytesEj(i32 noundef %1)
  %2 = load ptr, ptr %t.addr, align 8
  store i32 %call, ptr %2, align 4
  ret void
}

; Function Attrs: mustprogress uwtable
define internal void @_ZN4dateL19maybe_reverse_bytesIiEEvRT_(ptr noundef nonnull align 4 dereferenceable(4) %t) #7 {
entry:
  %t.addr = alloca ptr, align 8
  store ptr %t, ptr %t.addr, align 8
  %0 = load ptr, ptr %t.addr, align 8
  call void @_ZN4dateL19maybe_reverse_bytesERiSt17integral_constantIbLb1EE(ptr noundef nonnull align 4 dereferenceable(4) %0)
  ret void
}

; Function Attrs: mustprogress uwtable
define internal void @_ZN4dateL14load_leap_dataIlEESt6vectorINS_11leap_secondESaIS2_EERSiiiii(ptr noalias sret(%"class.std::vector.3") align 8 %agg.result, ptr noundef nonnull align 8 dereferenceable(16) %inf, i32 noundef %tzh_leapcnt, i32 noundef %tzh_timecnt, i32 noundef %tzh_typecnt, i32 noundef %tzh_charcnt) #7 {
entry:
  %result.ptr = alloca ptr, align 8
  %inf.addr = alloca ptr, align 8
  %tzh_leapcnt.addr = alloca i32, align 4
  %tzh_timecnt.addr = alloca i32, align 4
  %tzh_typecnt.addr = alloca i32, align 4
  %tzh_charcnt.addr = alloca i32, align 4
  store ptr %agg.result, ptr %result.ptr, align 8
  store ptr %inf, ptr %inf.addr, align 8
  store i32 %tzh_leapcnt, ptr %tzh_leapcnt.addr, align 4
  store i32 %tzh_timecnt, ptr %tzh_timecnt.addr, align 4
  store i32 %tzh_typecnt, ptr %tzh_typecnt.addr, align 4
  store i32 %tzh_charcnt, ptr %tzh_charcnt.addr, align 4
  %0 = load ptr, ptr %inf.addr, align 8
  %1 = load i32, ptr %tzh_timecnt.addr, align 4
  %mul = mul nsw i32 %1, 8
  %2 = load i32, ptr %tzh_timecnt.addr, align 4
  %add = add nsw i32 %mul, %2
  %3 = load i32, ptr %tzh_typecnt.addr, align 4
  %mul1 = mul nsw i32 %3, 6
  %add2 = add nsw i32 %add, %mul1
  %4 = load i32, ptr %tzh_charcnt.addr, align 4
  %add3 = add nsw i32 %add2, %4
  %conv = sext i32 %add3 to i64
  %call = call noundef nonnull align 8 dereferenceable(16) ptr @_ZNSi6ignoreEl(ptr noundef nonnull align 8 dereferenceable(16) %0, i64 noundef %conv)
  %5 = load ptr, ptr %inf.addr, align 8
  %6 = load i32, ptr %tzh_leapcnt.addr, align 4
  call void @_ZN4dateL10load_leapsIlEESt6vectorINS_11leap_secondESaIS2_EERSii(ptr sret(%"class.std::vector.3") align 8 %agg.result, ptr noundef nonnull align 8 dereferenceable(16) %5, i32 noundef %6)
  ret void
}

; Function Attrs: mustprogress uwtable
define internal void @_ZN4dateL14load_leap_dataIiEESt6vectorINS_11leap_secondESaIS2_EERSiiiii(ptr noalias sret(%"class.std::vector.3") align 8 %agg.result, ptr noundef nonnull align 8 dereferenceable(16) %inf, i32 noundef %tzh_leapcnt, i32 noundef %tzh_timecnt, i32 noundef %tzh_typecnt, i32 noundef %tzh_charcnt) #7 {
entry:
  %result.ptr = alloca ptr, align 8
  %inf.addr = alloca ptr, align 8
  %tzh_leapcnt.addr = alloca i32, align 4
  %tzh_timecnt.addr = alloca i32, align 4
  %tzh_typecnt.addr = alloca i32, align 4
  %tzh_charcnt.addr = alloca i32, align 4
  store ptr %agg.result, ptr %result.ptr, align 8
  store ptr %inf, ptr %inf.addr, align 8
  store i32 %tzh_leapcnt, ptr %tzh_leapcnt.addr, align 4
  store i32 %tzh_timecnt, ptr %tzh_timecnt.addr, align 4
  store i32 %tzh_typecnt, ptr %tzh_typecnt.addr, align 4
  store i32 %tzh_charcnt, ptr %tzh_charcnt.addr, align 4
  %0 = load ptr, ptr %inf.addr, align 8
  %1 = load i32, ptr %tzh_timecnt.addr, align 4
  %mul = mul nsw i32 %1, 4
  %2 = load i32, ptr %tzh_timecnt.addr, align 4
  %add = add nsw i32 %mul, %2
  %3 = load i32, ptr %tzh_typecnt.addr, align 4
  %mul1 = mul nsw i32 %3, 6
  %add2 = add nsw i32 %add, %mul1
  %4 = load i32, ptr %tzh_charcnt.addr, align 4
  %add3 = add nsw i32 %add2, %4
  %conv = sext i32 %add3 to i64
  %call = call noundef nonnull align 8 dereferenceable(16) ptr @_ZNSi6ignoreEl(ptr noundef nonnull align 8 dereferenceable(16) %0, i64 noundef %conv)
  %5 = load ptr, ptr %inf.addr, align 8
  %6 = load i32, ptr %tzh_leapcnt.addr, align 4
  call void @_ZN4dateL10load_leapsIiEESt6vectorINS_11leap_secondESaIS2_EERSii(ptr sret(%"class.std::vector.3") align 8 %agg.result, ptr noundef nonnull align 8 dereferenceable(16) %5, i32 noundef %6)
  ret void
}

; Function Attrs: mustprogress uwtable
define internal void @_ZN4dateL11load_countsERSiRiS1_S1_S1_S1_S1_(ptr noundef nonnull align 8 dereferenceable(16) %inf, ptr noundef nonnull align 4 dereferenceable(4) %tzh_ttisgmtcnt, ptr noundef nonnull align 4 dereferenceable(4) %tzh_ttisstdcnt, ptr noundef nonnull align 4 dereferenceable(4) %tzh_leapcnt, ptr noundef nonnull align 4 dereferenceable(4) %tzh_timecnt, ptr noundef nonnull align 4 dereferenceable(4) %tzh_typecnt, ptr noundef nonnull align 4 dereferenceable(4) %tzh_charcnt) #7 {
entry:
  %inf.addr = alloca ptr, align 8
  %tzh_ttisgmtcnt.addr = alloca ptr, align 8
  %tzh_ttisstdcnt.addr = alloca ptr, align 8
  %tzh_leapcnt.addr = alloca ptr, align 8
  %tzh_timecnt.addr = alloca ptr, align 8
  %tzh_typecnt.addr = alloca ptr, align 8
  %tzh_charcnt.addr = alloca ptr, align 8
  store ptr %inf, ptr %inf.addr, align 8
  store ptr %tzh_ttisgmtcnt, ptr %tzh_ttisgmtcnt.addr, align 8
  store ptr %tzh_ttisstdcnt, ptr %tzh_ttisstdcnt.addr, align 8
  store ptr %tzh_leapcnt, ptr %tzh_leapcnt.addr, align 8
  store ptr %tzh_timecnt, ptr %tzh_timecnt.addr, align 8
  store ptr %tzh_typecnt, ptr %tzh_typecnt.addr, align 8
  store ptr %tzh_charcnt, ptr %tzh_charcnt.addr, align 8
  %0 = load ptr, ptr %inf.addr, align 8
  %1 = load ptr, ptr %tzh_ttisgmtcnt.addr, align 8
  %call = call noundef nonnull align 8 dereferenceable(16) ptr @_ZNSi4readEPcl(ptr noundef nonnull align 8 dereferenceable(16) %0, ptr noundef %1, i64 noundef 4)
  %2 = load ptr, ptr %tzh_ttisgmtcnt.addr, align 8
  call void @_ZN4dateL19maybe_reverse_bytesIiEEvRT_(ptr noundef nonnull align 4 dereferenceable(4) %2)
  %3 = load ptr, ptr %inf.addr, align 8
  %4 = load ptr, ptr %tzh_ttisstdcnt.addr, align 8
  %call1 = call noundef nonnull align 8 dereferenceable(16) ptr @_ZNSi4readEPcl(ptr noundef nonnull align 8 dereferenceable(16) %3, ptr noundef %4, i64 noundef 4)
  %5 = load ptr, ptr %tzh_ttisstdcnt.addr, align 8
  call void @_ZN4dateL19maybe_reverse_bytesIiEEvRT_(ptr noundef nonnull align 4 dereferenceable(4) %5)
  %6 = load ptr, ptr %inf.addr, align 8
  %7 = load ptr, ptr %tzh_leapcnt.addr, align 8
  %call2 = call noundef nonnull align 8 dereferenceable(16) ptr @_ZNSi4readEPcl(ptr noundef nonnull align 8 dereferenceable(16) %6, ptr noundef %7, i64 noundef 4)
  %8 = load ptr, ptr %tzh_leapcnt.addr, align 8
  call void @_ZN4dateL19maybe_reverse_bytesIiEEvRT_(ptr noundef nonnull align 4 dereferenceable(4) %8)
  %9 = load ptr, ptr %inf.addr, align 8
  %10 = load ptr, ptr %tzh_timecnt.addr, align 8
  %call3 = call noundef nonnull align 8 dereferenceable(16) ptr @_ZNSi4readEPcl(ptr noundef nonnull align 8 dereferenceable(16) %9, ptr noundef %10, i64 noundef 4)
  %11 = load ptr, ptr %tzh_timecnt.addr, align 8
  call void @_ZN4dateL19maybe_reverse_bytesIiEEvRT_(ptr noundef nonnull align 4 dereferenceable(4) %11)
  %12 = load ptr, ptr %inf.addr, align 8
  %13 = load ptr, ptr %tzh_typecnt.addr, align 8
  %call4 = call noundef nonnull align 8 dereferenceable(16) ptr @_ZNSi4readEPcl(ptr noundef nonnull align 8 dereferenceable(16) %12, ptr noundef %13, i64 noundef 4)
  %14 = load ptr, ptr %tzh_typecnt.addr, align 8
  call void @_ZN4dateL19maybe_reverse_bytesIiEEvRT_(ptr noundef nonnull align 4 dereferenceable(4) %14)
  %15 = load ptr, ptr %inf.addr, align 8
  %16 = load ptr, ptr %tzh_charcnt.addr, align 8
  %call5 = call noundef nonnull align 8 dereferenceable(16) ptr @_ZNSi4readEPcl(ptr noundef nonnull align 8 dereferenceable(16) %15, ptr noundef %16, i64 noundef 4)
  %17 = load ptr, ptr %tzh_charcnt.addr, align 8
  call void @_ZN4dateL19maybe_reverse_bytesIiEEvRT_(ptr noundef nonnull align 4 dereferenceable(4) %17)
  ret void
}

; Function Attrs: mustprogress uwtable
define internal void @_ZN4dateL12skip_reserveERSi(ptr noundef nonnull align 8 dereferenceable(16) %inf) #7 {
entry:
  %inf.addr = alloca ptr, align 8
  store ptr %inf, ptr %inf.addr, align 8
  %0 = load ptr, ptr %inf.addr, align 8
  %call = call noundef nonnull align 8 dereferenceable(16) ptr @_ZNSi6ignoreEl(ptr noundef nonnull align 8 dereferenceable(16) %0, i64 noundef 15)
  ret void
}

; Function Attrs: mustprogress uwtable
define internal noundef zeroext i8 @_ZN4dateL12load_versionERSi(ptr noundef nonnull align 8 dereferenceable(16) %inf) #7 {
entry:
  %inf.addr = alloca ptr, align 8
  %v = alloca i32, align 4
  store ptr %inf, ptr %inf.addr, align 8
  %0 = load ptr, ptr %inf.addr, align 8
  %call = call noundef i32 @_ZNSi3getEv(ptr noundef nonnull align 8 dereferenceable(16) %0)
  store i32 %call, ptr %v, align 4
  %1 = load i32, ptr %v, align 4
  %conv = trunc i32 %1 to i8
  ret i8 %conv
}

; Function Attrs: mustprogress uwtable
define internal void @_ZN4dateL11load_headerERSi(ptr noundef nonnull align 8 dereferenceable(16) %inf) #7 {
entry:
  %inf.addr = alloca ptr, align 8
  %t = alloca i32, align 4
  %z = alloca i32, align 4
  %i = alloca i32, align 4
  %f = alloca i32, align 4
  store ptr %inf, ptr %inf.addr, align 8
  %0 = load ptr, ptr %inf.addr, align 8
  %call = call noundef i32 @_ZNSi3getEv(ptr noundef nonnull align 8 dereferenceable(16) %0)
  store i32 %call, ptr %t, align 4
  %1 = load ptr, ptr %inf.addr, align 8
  %call1 = call noundef i32 @_ZNSi3getEv(ptr noundef nonnull align 8 dereferenceable(16) %1)
  store i32 %call1, ptr %z, align 4
  %2 = load ptr, ptr %inf.addr, align 8
  %call2 = call noundef i32 @_ZNSi3getEv(ptr noundef nonnull align 8 dereferenceable(16) %2)
  store i32 %call2, ptr %i, align 4
  %3 = load ptr, ptr %inf.addr, align 8
  %call3 = call noundef i32 @_ZNSi3getEv(ptr noundef nonnull align 8 dereferenceable(16) %3)
  store i32 %call3, ptr %f, align 4
  ret void
}

; Function Attrs: mustprogress uwtable
define internal void @_ZN4dateL15load_just_leapsERSi(ptr noalias sret(%"class.std::vector.3") align 8 %agg.result, ptr noundef nonnull align 8 dereferenceable(16) %inf) #7 {
entry:
  %result.ptr = alloca ptr, align 8
  %inf.addr = alloca ptr, align 8
  %v = alloca i8, align 1
  %tzh_ttisgmtcnt = alloca i32, align 4
  %tzh_ttisstdcnt = alloca i32, align 4
  %tzh_leapcnt = alloca i32, align 4
  %tzh_timecnt = alloca i32, align 4
  %tzh_typecnt = alloca i32, align 4
  %tzh_charcnt = alloca i32, align 4
  store ptr %agg.result, ptr %result.ptr, align 8
  store ptr %inf, ptr %inf.addr, align 8
  %0 = load ptr, ptr %inf.addr, align 8
  call void @_ZN4dateL11load_headerERSi(ptr noundef nonnull align 8 dereferenceable(16) %0)
  %1 = load ptr, ptr %inf.addr, align 8
  %call = call noundef zeroext i8 @_ZN4dateL12load_versionERSi(ptr noundef nonnull align 8 dereferenceable(16) %1)
  store i8 %call, ptr %v, align 1
  %2 = load ptr, ptr %inf.addr, align 8
  call void @_ZN4dateL12skip_reserveERSi(ptr noundef nonnull align 8 dereferenceable(16) %2)
  %3 = load ptr, ptr %inf.addr, align 8
  call void @_ZN4dateL11load_countsERSiRiS1_S1_S1_S1_S1_(ptr noundef nonnull align 8 dereferenceable(16) %3, ptr noundef nonnull align 4 dereferenceable(4) %tzh_ttisgmtcnt, ptr noundef nonnull align 4 dereferenceable(4) %tzh_ttisstdcnt, ptr noundef nonnull align 4 dereferenceable(4) %tzh_leapcnt, ptr noundef nonnull align 4 dereferenceable(4) %tzh_timecnt, ptr noundef nonnull align 4 dereferenceable(4) %tzh_typecnt, ptr noundef nonnull align 4 dereferenceable(4) %tzh_charcnt)
  %4 = load i8, ptr %v, align 1
  %conv = zext i8 %4 to i32
  %cmp = icmp eq i32 %conv, 0
  br i1 %cmp, label %if.then, label %if.end

if.then:                                          ; preds = %entry
  %5 = load ptr, ptr %inf.addr, align 8
  %6 = load i32, ptr %tzh_leapcnt, align 4
  %7 = load i32, ptr %tzh_timecnt, align 4
  %8 = load i32, ptr %tzh_typecnt, align 4
  %9 = load i32, ptr %tzh_charcnt, align 4
  call void @_ZN4dateL14load_leap_dataIiEESt6vectorINS_11leap_secondESaIS2_EERSiiiii(ptr sret(%"class.std::vector.3") align 8 %agg.result, ptr noundef nonnull align 8 dereferenceable(16) %5, i32 noundef %6, i32 noundef %7, i32 noundef %8, i32 noundef %9)
  br label %return

if.end:                                           ; preds = %entry
  %10 = load ptr, ptr %inf.addr, align 8
  %11 = load i32, ptr %tzh_timecnt, align 4
  %mul = mul nsw i32 5, %11
  %12 = load i32, ptr %tzh_typecnt, align 4
  %mul1 = mul nsw i32 6, %12
  %add = add nsw i32 %mul, %mul1
  %13 = load i32, ptr %tzh_charcnt, align 4
  %add2 = add nsw i32 %add, %13
  %14 = load i32, ptr %tzh_leapcnt, align 4
  %mul3 = mul nsw i32 8, %14
  %add4 = add nsw i32 %add2, %mul3
  %15 = load i32, ptr %tzh_ttisstdcnt, align 4
  %add5 = add nsw i32 %add4, %15
  %16 = load i32, ptr %tzh_ttisgmtcnt, align 4
  %add6 = add nsw i32 %add5, %16
  %add7 = add nsw i32 %add6, 20
  %conv8 = sext i32 %add7 to i64
  %call9 = call noundef nonnull align 8 dereferenceable(16) ptr @_ZNSi6ignoreEl(ptr noundef nonnull align 8 dereferenceable(16) %10, i64 noundef %conv8)
  %17 = load ptr, ptr %inf.addr, align 8
  call void @_ZN4dateL11load_countsERSiRiS1_S1_S1_S1_S1_(ptr noundef nonnull align 8 dereferenceable(16) %17, ptr noundef nonnull align 4 dereferenceable(4) %tzh_ttisgmtcnt, ptr noundef nonnull align 4 dereferenceable(4) %tzh_ttisstdcnt, ptr noundef nonnull align 4 dereferenceable(4) %tzh_leapcnt, ptr noundef nonnull align 4 dereferenceable(4) %tzh_timecnt, ptr noundef nonnull align 4 dereferenceable(4) %tzh_typecnt, ptr noundef nonnull align 4 dereferenceable(4) %tzh_charcnt)
  %18 = load ptr, ptr %inf.addr, align 8
  %19 = load i32, ptr %tzh_leapcnt, align 4
  %20 = load i32, ptr %tzh_timecnt, align 4
  %21 = load i32, ptr %tzh_typecnt, align 4
  %22 = load i32, ptr %tzh_charcnt, align 4
  call void @_ZN4dateL14load_leap_dataIlEESt6vectorINS_11leap_secondESaIS2_EERSiiiii(ptr sret(%"class.std::vector.3") align 8 %agg.result, ptr noundef nonnull align 8 dereferenceable(16) %18, i32 noundef %19, i32 noundef %20, i32 noundef %21, i32 noundef %22)
  br label %return

return:                                           ; preds = %if.end, %if.then
  ret void
}