; Function Attrs: mustprogress uwtable
define internal fastcc void @_ZN4dateL15load_just_leapsERSi(ptr noalias align 8 %agg.result, ptr noundef nonnull align 8 dereferenceable(16) %inf) unnamed_addr #7 {
entry:
  %tzh_ttisgmtcnt = alloca i32, align 4
  %tzh_ttisstdcnt = alloca i32, align 4
  %tzh_leapcnt = alloca i32, align 4
  %tzh_timecnt = alloca i32, align 4
  %tzh_typecnt = alloca i32, align 4
  %tzh_charcnt = alloca i32, align 4
  %call.i = tail call noundef i32 @_ZNSi3getEv(ptr noundef nonnull align 8 dereferenceable(16) %inf)
  %call1.i = tail call noundef i32 @_ZNSi3getEv(ptr noundef nonnull align 8 dereferenceable(16) %inf)
  %call2.i = tail call noundef i32 @_ZNSi3getEv(ptr noundef nonnull align 8 dereferenceable(16) %inf)
  %call3.i = tail call noundef i32 @_ZNSi3getEv(ptr noundef nonnull align 8 dereferenceable(16) %inf)
  %call.i8 = tail call noundef i32 @_ZNSi3getEv(ptr noundef nonnull align 8 dereferenceable(16) %inf)
  %call.i9 = tail call noundef nonnull align 8 dereferenceable(16) ptr @_ZNSi6ignoreEl(ptr noundef nonnull align 8 dereferenceable(16) %inf, i64 noundef 15)
  %call.i10 = call noundef nonnull align 8 dereferenceable(16) ptr @_ZNSi4readEPcl(ptr noundef nonnull align 8 dereferenceable(16) %inf, ptr noundef nonnull %tzh_ttisgmtcnt, i64 noundef 4)
  %0 = load i32, ptr %tzh_ttisgmtcnt, align 4
  %or7.i.i.i.i = call noundef i32 @llvm.bswap.i32(i32 %0)
  store i32 %or7.i.i.i.i, ptr %tzh_ttisgmtcnt, align 4
  %call1.i11 = call noundef nonnull align 8 dereferenceable(16) ptr @_ZNSi4readEPcl(ptr noundef nonnull align 8 dereferenceable(16) %inf, ptr noundef nonnull %tzh_ttisstdcnt, i64 noundef 4)
  %1 = load i32, ptr %tzh_ttisstdcnt, align 4
  %or7.i.i.i12.i = call noundef i32 @llvm.bswap.i32(i32 %1)
  store i32 %or7.i.i.i12.i, ptr %tzh_ttisstdcnt, align 4
  %call2.i12 = call noundef nonnull align 8 dereferenceable(16) ptr @_ZNSi4readEPcl(ptr noundef nonnull align 8 dereferenceable(16) %inf, ptr noundef nonnull %tzh_leapcnt, i64 noundef 4)
  %2 = load i32, ptr %tzh_leapcnt, align 4
  %or7.i.i.i13.i = call noundef i32 @llvm.bswap.i32(i32 %2)
  store i32 %or7.i.i.i13.i, ptr %tzh_leapcnt, align 4
  %call3.i13 = call noundef nonnull align 8 dereferenceable(16) ptr @_ZNSi4readEPcl(ptr noundef nonnull align 8 dereferenceable(16) %inf, ptr noundef nonnull %tzh_timecnt, i64 noundef 4)
  %3 = load i32, ptr %tzh_timecnt, align 4
  %or7.i.i.i14.i = call noundef i32 @llvm.bswap.i32(i32 %3)
  store i32 %or7.i.i.i14.i, ptr %tzh_timecnt, align 4
  %call4.i = call noundef nonnull align 8 dereferenceable(16) ptr @_ZNSi4readEPcl(ptr noundef nonnull align 8 dereferenceable(16) %inf, ptr noundef nonnull %tzh_typecnt, i64 noundef 4)
  %4 = load i32, ptr %tzh_typecnt, align 4
  %or7.i.i.i15.i = call noundef i32 @llvm.bswap.i32(i32 %4)
  store i32 %or7.i.i.i15.i, ptr %tzh_typecnt, align 4
  %call5.i = call noundef nonnull align 8 dereferenceable(16) ptr @_ZNSi4readEPcl(ptr noundef nonnull align 8 dereferenceable(16) %inf, ptr noundef nonnull %tzh_charcnt, i64 noundef 4)
  %5 = load i32, ptr %tzh_charcnt, align 4
  %or7.i.i.i16.i = call noundef i32 @llvm.bswap.i32(i32 %5)
  store i32 %or7.i.i.i16.i, ptr %tzh_charcnt, align 4
  %6 = and i32 %call.i8, 255
  %cmp = icmp eq i32 %6, 0
  %7 = load i32, ptr %tzh_typecnt, align 4
  br i1 %cmp, label %if.then, label %if.end

if.then:                                          ; preds = %entry
  %8 = load i32, ptr %tzh_leapcnt, align 4
  %9 = load i32, ptr %tzh_timecnt, align 4
  %add.i = mul nsw i32 %9, 5
  %mul1.i = mul nsw i32 %7, 6
  %add2.i = add i32 %add.i, %or7.i.i.i16.i
  %add3.i = add i32 %add2.i, %mul1.i
  %conv.i14 = sext i32 %add3.i to i64
  %call.i15 = call noundef nonnull align 8 dereferenceable(16) ptr @_ZNSi6ignoreEl(ptr noundef nonnull align 8 dereferenceable(16) %inf, i64 noundef %conv.i14), !noalias !68
  call fastcc void @_ZN4dateL10load_leapsIiEESt6vectorINS_11leap_secondESaIS2_EERSii(ptr noalias align 8 %agg.result, ptr noundef nonnull align 8 dereferenceable(16) %inf, i32 noundef %8)
  br label %return

if.end:                                           ; preds = %entry
  %10 = load i32, ptr %tzh_timecnt, align 4
  %mul = mul nsw i32 %10, 5
  %mul1 = mul nsw i32 %7, 6
  %11 = load i32, ptr %tzh_leapcnt, align 4
  %mul3 = shl nsw i32 %11, 3
  %12 = load i32, ptr %tzh_ttisstdcnt, align 4
  %13 = load i32, ptr %tzh_ttisgmtcnt, align 4
  %add = add i32 %or7.i.i.i16.i, 20
  %add2 = add i32 %add, %mul
  %add4 = add i32 %add2, %mul1
  %add5 = add i32 %add4, %mul3
  %add6 = add i32 %add5, %12
  %add7 = add i32 %add6, %13
  %conv8 = sext i32 %add7 to i64
  %call9 = call noundef nonnull align 8 dereferenceable(16) ptr @_ZNSi6ignoreEl(ptr noundef nonnull align 8 dereferenceable(16) %inf, i64 noundef %conv8)
  %call.i16 = call noundef nonnull align 8 dereferenceable(16) ptr @_ZNSi4readEPcl(ptr noundef nonnull align 8 dereferenceable(16) %inf, ptr noundef nonnull %tzh_ttisgmtcnt, i64 noundef 4)
  %14 = load i32, ptr %tzh_ttisgmtcnt, align 4
  %or7.i.i.i.i17 = call noundef i32 @llvm.bswap.i32(i32 %14)
  store i32 %or7.i.i.i.i17, ptr %tzh_ttisgmtcnt, align 4
  %call1.i18 = call noundef nonnull align 8 dereferenceable(16) ptr @_ZNSi4readEPcl(ptr noundef nonnull align 8 dereferenceable(16) %inf, ptr noundef nonnull %tzh_ttisstdcnt, i64 noundef 4)
  %15 = load i32, ptr %tzh_ttisstdcnt, align 4
  %or7.i.i.i12.i19 = call noundef i32 @llvm.bswap.i32(i32 %15)
  store i32 %or7.i.i.i12.i19, ptr %tzh_ttisstdcnt, align 4
  %call2.i20 = call noundef nonnull align 8 dereferenceable(16) ptr @_ZNSi4readEPcl(ptr noundef nonnull align 8 dereferenceable(16) %inf, ptr noundef nonnull %tzh_leapcnt, i64 noundef 4)
  %16 = load i32, ptr %tzh_leapcnt, align 4
  %or7.i.i.i13.i21 = call noundef i32 @llvm.bswap.i32(i32 %16)
  store i32 %or7.i.i.i13.i21, ptr %tzh_leapcnt, align 4
  %call3.i22 = call noundef nonnull align 8 dereferenceable(16) ptr @_ZNSi4readEPcl(ptr noundef nonnull align 8 dereferenceable(16) %inf, ptr noundef nonnull %tzh_timecnt, i64 noundef 4)
  %17 = load i32, ptr %tzh_timecnt, align 4
  %or7.i.i.i14.i23 = call noundef i32 @llvm.bswap.i32(i32 %17)
  store i32 %or7.i.i.i14.i23, ptr %tzh_timecnt, align 4
  %call4.i24 = call noundef nonnull align 8 dereferenceable(16) ptr @_ZNSi4readEPcl(ptr noundef nonnull align 8 dereferenceable(16) %inf, ptr noundef nonnull %tzh_typecnt, i64 noundef 4)
  %18 = load i32, ptr %tzh_typecnt, align 4
  %or7.i.i.i15.i25 = call noundef i32 @llvm.bswap.i32(i32 %18)
  store i32 %or7.i.i.i15.i25, ptr %tzh_typecnt, align 4
  %call5.i26 = call noundef nonnull align 8 dereferenceable(16) ptr @_ZNSi4readEPcl(ptr noundef nonnull align 8 dereferenceable(16) %inf, ptr noundef nonnull %tzh_charcnt, i64 noundef 4)
  %19 = load i32, ptr %tzh_charcnt, align 4
  %or7.i.i.i16.i27 = call noundef i32 @llvm.bswap.i32(i32 %19)
  store i32 %or7.i.i.i16.i27, ptr %tzh_charcnt, align 4
  %20 = load i32, ptr %tzh_leapcnt, align 4
  %21 = load i32, ptr %tzh_timecnt, align 4
  %22 = load i32, ptr %tzh_typecnt, align 4
  %add.i28 = mul nsw i32 %21, 9
  %mul1.i29 = mul nsw i32 %22, 6
  %add2.i30 = add i32 %add.i28, %or7.i.i.i16.i27
  %add3.i31 = add i32 %add2.i30, %mul1.i29
  %conv.i32 = sext i32 %add3.i31 to i64
  %call.i33 = call noundef nonnull align 8 dereferenceable(16) ptr @_ZNSi6ignoreEl(ptr noundef nonnull align 8 dereferenceable(16) %inf, i64 noundef %conv.i32), !noalias !71
  call fastcc void @_ZN4dateL10load_leapsIlEESt6vectorINS_11leap_secondESaIS2_EERSii(ptr noalias align 8 %agg.result, ptr noundef nonnull align 8 dereferenceable(16) %inf, i32 noundef %20)
  br label %return

return:                                           ; preds = %if.end, %if.then
  ret void
}